target datalayout = "e-m:e-p270:32:32-p271:32:32-p272:64:64-i64:64-i128:128-f80:128-n8:16:32:64-S128"
target triple = "x86_64-pc-linux-gnu"

%struct.dump_config = type { i64, i64, i64, ptr, ptr, i64, i64, i64, i64, i8, i32, i64, i64, i64, [4096 x i8] }
%struct.rb_shape = type { ptr, i64, i32, i32, i8, i8, i32, ptr }

@.str.3 = private unnamed_addr constant [12 x i8] c"{\22address\22:\00", align 1
@.str.10 = private unnamed_addr constant [3 x i8] c"}\0A\00", align 1
@.str.44 = private unnamed_addr constant [13 x i8] c", \22memsize\22:\00", align 1
@ruby_hexdigits = external constant [0 x i8], align 1
@.str.84 = private unnamed_addr constant [14 x i8] c"\22ID_INTERNAL(\00", align 1
@.str.85 = private unnamed_addr constant [3 x i8] c")\22\00", align 1
@.str.107 = private unnamed_addr constant [24 x i8] c", \22type\22:\22SHAPE\22, \22id\22:\00", align 1
@.str.108 = private unnamed_addr constant [15 x i8] c", \22parent_id\22:\00", align 1
@.str.109 = private unnamed_addr constant [11 x i8] c", \22depth\22:\00", align 1
@.str.110 = private unnamed_addr constant [16 x i8] c", \22shape_type\22:\00", align 1
@.str.111 = private unnamed_addr constant [7 x i8] c"\22ROOT\22\00", align 1
@.str.112 = private unnamed_addr constant [7 x i8] c"\22IVAR\22\00", align 1
@.str.113 = private unnamed_addr constant [14 x i8] c",\22edge_name\22:\00", align 1
@.str.114 = private unnamed_addr constant [9 x i8] c"\22FROZEN\22\00", align 1
@.str.115 = private unnamed_addr constant [11 x i8] c"\22T_OBJECT\22\00", align 1
@.str.116 = private unnamed_addr constant [18 x i8] c"\22OBJ_TOO_COMPLEX\22\00", align 1
@.str.117 = private unnamed_addr constant [33 x i8] c"[objspace] unexpected shape type\00", align 1
@.str.118 = private unnamed_addr constant [11 x i8] c", \22edges\22:\00", align 1

; Function Attrs: inlinehint nounwind sspstrong uwtable
define internal i32 @rb_id_to_serial(i64 noundef %0) #6 {
  %2 = alloca i32, align 4
  %3 = alloca i64, align 8
  store i64 %0, ptr %3, align 8, !tbaa !6
  %4 = load i64, ptr %3, align 8, !tbaa !6
  %5 = icmp ugt i64 %4, 170
  br i1 %5, label %6, label %10

6:                                                ; preds = %1
  %7 = load i64, ptr %3, align 8, !tbaa !6
  %8 = lshr i64 %7, 4
  %9 = trunc i64 %8 to i32
  store i32 %9, ptr %2, align 4
  br label %13

10:                                               ; preds = %1
  %11 = load i64, ptr %3, align 8, !tbaa !6
  %12 = trunc i64 %11 to i32
  store i32 %12, ptr %2, align 4
  br label %13

13:                                               ; preds = %10, %6
  %14 = load i32, ptr %2, align 4
  ret i32 %14
}

; Function Attrs: inlinehint nounwind sspstrong willreturn memory(none) uwtable
define internal zeroext i1 @RB_TEST(i64 noundef %0) #4 {
  %2 = alloca i64, align 8
  store i64 %0, ptr %2, align 8, !tbaa !6
  %3 = load i64, ptr %2, align 8, !tbaa !6
  %4 = and i64 %3, -5
  %5 = icmp ne i64 %4, 0
  ret i1 %5
}

; Function Attrs: nounwind sspstrong uwtable
define internal void @dump_append_ptr(ptr noundef %0, i64 noundef %1) #0 {
  %3 = alloca ptr, align 8
  %4 = alloca i64, align 8
  %5 = alloca [20 x i8], align 16
  %6 = alloca ptr, align 8
  %7 = alloca ptr, align 8
  store ptr %0, ptr %3, align 8, !tbaa !18
  store i64 %1, ptr %4, align 8, !tbaa !6
  call void @llvm.lifetime.start.p0(i64 20, ptr %5) #21
  call void @llvm.lifetime.start.p0(i64 8, ptr %6) #21
  call void @llvm.lifetime.start.p0(i64 8, ptr %7) #21
  %8 = getelementptr inbounds nuw [20 x i8], ptr %5, i64 0, i64 20
  store ptr %8, ptr %7, align 8, !tbaa !69
  store ptr %8, ptr %6, align 8, !tbaa !69
  %9 = load ptr, ptr %6, align 8, !tbaa !69
  %10 = getelementptr inbounds i8, ptr %9, i32 -1
  store ptr %10, ptr %6, align 8, !tbaa !69
  store i8 34, ptr %10, align 1, !tbaa !84
  br label %11

11:                                               ; preds = %14, %2
  %12 = load i64, ptr %4, align 8, !tbaa !6
  %13 = icmp ne i64 %12, 0
  br i1 %13, label %14, label %23

14:                                               ; preds = %11
  %15 = load i64, ptr %4, align 8, !tbaa !6
  %16 = and i64 %15, 15
  %17 = getelementptr inbounds nuw [0 x i8], ptr @ruby_hexdigits, i64 0, i64 %16
  %18 = load i8, ptr %17, align 1, !tbaa !84
  %19 = load ptr, ptr %6, align 8, !tbaa !69
  %20 = getelementptr inbounds i8, ptr %19, i32 -1
  store ptr %20, ptr %6, align 8, !tbaa !69
  store i8 %18, ptr %20, align 1, !tbaa !84
  %21 = load i64, ptr %4, align 8, !tbaa !6
  %22 = lshr i64 %21, 4
  store i64 %22, ptr %4, align 8, !tbaa !6
  br label %11, !llvm.loop !99

23:                                               ; preds = %11
  %24 = load ptr, ptr %6, align 8, !tbaa !69
  %25 = getelementptr inbounds i8, ptr %24, i32 -1
  store ptr %25, ptr %6, align 8, !tbaa !69
  store i8 120, ptr %25, align 1, !tbaa !84
  %26 = load ptr, ptr %6, align 8, !tbaa !69
  %27 = getelementptr inbounds i8, ptr %26, i32 -1
  store ptr %27, ptr %6, align 8, !tbaa !69
  store i8 48, ptr %27, align 1, !tbaa !84
  %28 = load ptr, ptr %6, align 8, !tbaa !69
  %29 = getelementptr inbounds i8, ptr %28, i32 -1
  store ptr %29, ptr %6, align 8, !tbaa !69
  store i8 34, ptr %29, align 1, !tbaa !84
  %30 = load ptr, ptr %3, align 8, !tbaa !18
  %31 = load ptr, ptr %6, align 8, !tbaa !69
  %32 = load ptr, ptr %7, align 8, !tbaa !69
  %33 = load ptr, ptr %6, align 8, !tbaa !69
  %34 = ptrtoint ptr %32 to i64
  %35 = ptrtoint ptr %33 to i64
  %36 = sub i64 %34, %35
  call void @buffer_append(ptr noundef %30, ptr noundef %31, i64 noundef %36)
  call void @llvm.lifetime.end.p0(i64 8, ptr %7) #21
  call void @llvm.lifetime.end.p0(i64 8, ptr %6) #21
  call void @llvm.lifetime.end.p0(i64 20, ptr %5) #21
  ret void
}

; Function Attrs: inlinehint nounwind sspstrong uwtable
define internal void @dump_append_id(ptr noundef %0, i64 noundef %1) #6 {
  %3 = alloca ptr, align 8
  %4 = alloca i64, align 8
  %5 = alloca i64, align 8
  %6 = alloca i64, align 8
  store ptr %0, ptr %3, align 8, !tbaa !18
  store i64 %1, ptr %4, align 8, !tbaa !6
  call void @llvm.lifetime.start.p0(i64 8, ptr %5) #21
  %7 = load i64, ptr %4, align 8, !tbaa !6
  %8 = call i1 @llvm.is.constant.i64(i64 %7)
  br i1 %8, label %9, label %20

9:                                                ; preds = %2
  %10 = load i64, ptr %4, align 8, !tbaa !6
  %11 = and i64 %10, 1
  %12 = icmp ne i64 %11, 0
  br i1 %12, label %16, label %13

13:                                               ; preds = %9
  %14 = load i64, ptr %4, align 8, !tbaa !6
  %15 = icmp ugt i64 %14, 170
  br i1 %15, label %20, label %16

16:                                               ; preds = %13, %9
  %17 = load i64, ptr %4, align 8, !tbaa !6
  %18 = shl i64 %17, 8
  %19 = or i64 %18, 12
  br label %23

20:                                               ; preds = %13, %2
  %21 = load i64, ptr %4, align 8, !tbaa !6
  %22 = call i64 @rb_id2sym(i64 noundef %21)
  br label %23

23:                                               ; preds = %20, %16
  %24 = phi i64 [ %19, %16 ], [ %22, %20 ]
  store i64 %24, ptr %6, align 8, !tbaa !6
  %25 = load i64, ptr %6, align 8, !tbaa !6
  %26 = call i64 @rb_sym2str(i64 noundef %25)
  store i64 %26, ptr %5, align 8, !tbaa !6
  %27 = load i64, ptr %5, align 8, !tbaa !6
  %28 = call zeroext i1 @RB_TEST(i64 noundef %27) #22
  br i1 %28, label %29, label %32

29:                                               ; preds = %23
  %30 = load ptr, ptr %3, align 8, !tbaa !18
  %31 = load i64, ptr %5, align 8, !tbaa !6
  call void @dump_append_string_value(ptr noundef %30, i64 noundef %31)
  br label %39

32:                                               ; preds = %23
  %33 = load ptr, ptr %3, align 8, !tbaa !18
  call void @buffer_append(ptr noundef %33, ptr noundef @.str.84, i64 noundef 13)
  %34 = load ptr, ptr %3, align 8, !tbaa !18
  %35 = load i64, ptr %4, align 8, !tbaa !6
  %36 = call i32 @rb_id_to_serial(i64 noundef %35)
  %37 = zext i32 %36 to i64
  call void @dump_append_sizet(ptr noundef %34, i64 noundef %37)
  %38 = load ptr, ptr %3, align 8, !tbaa !18
  call void @buffer_append(ptr noundef %38, ptr noundef @.str.85, i64 noundef 2)
  br label %39

39:                                               ; preds = %32, %29
  call void @llvm.lifetime.end.p0(i64 8, ptr %5) #21
  ret void
}

; Function Attrs: nounwind sspstrong uwtable
define internal void @dump_append_ref(ptr noundef %0, i64 noundef %1) #0 {
  %3 = alloca ptr, align 8
  %4 = alloca i64, align 8
  store ptr %0, ptr %3, align 8, !tbaa !18
  store i64 %1, ptr %4, align 8, !tbaa !6
  %5 = load ptr, ptr %3, align 8, !tbaa !18
  %6 = load i64, ptr %4, align 8, !tbaa !6
  call void @dump_append_ptr(ptr noundef %5, i64 noundef %6)
  ret void
}

; Function Attrs: nounwind sspstrong uwtable
define internal void @shape_i(ptr noundef %0, ptr noundef %1) #0 {
  %3 = alloca ptr, align 8
  %4 = alloca ptr, align 8
  %5 = alloca ptr, align 8
  %6 = alloca i64, align 8
  %7 = alloca i32, align 4
  store ptr %0, ptr %3, align 8, !tbaa !111
  store ptr %1, ptr %4, align 8, !tbaa !93
  call void @llvm.lifetime.start.p0(i64 8, ptr %5) #21
  %8 = load ptr, ptr %4, align 8, !tbaa !93
  store ptr %8, ptr %5, align 8, !tbaa !18
  call void @llvm.lifetime.start.p0(i64 8, ptr %6) #21
  %9 = load ptr, ptr %3, align 8, !tbaa !111
  %10 = call i32 @rb_shape_id(ptr noundef %9)
  %11 = zext i32 %10 to i64
  store i64 %11, ptr %6, align 8, !tbaa !6
  %12 = load i64, ptr %6, align 8, !tbaa !6
  %13 = load ptr, ptr %5, align 8, !tbaa !18
  %14 = getelementptr inbounds nuw %struct.dump_config, ptr %13, i32 0, i32 12
  %15 = load i64, ptr %14, align 8, !tbaa !30
  %16 = icmp ult i64 %12, %15
  br i1 %16, label %17, label %18

17:                                               ; preds = %2
  store i32 1, ptr %7, align 4
  br label %74

18:                                               ; preds = %2
  %19 = load ptr, ptr %5, align 8, !tbaa !18
  call void @buffer_append(ptr noundef %19, ptr noundef @.str.3, i64 noundef 11)
  %20 = load ptr, ptr %5, align 8, !tbaa !18
  %21 = load ptr, ptr %3, align 8, !tbaa !111
  %22 = ptrtoint ptr %21 to i64
  call void @dump_append_ref(ptr noundef %20, i64 noundef %22)
  %23 = load ptr, ptr %5, align 8, !tbaa !18
  call void @buffer_append(ptr noundef %23, ptr noundef @.str.107, i64 noundef 23)
  %24 = load ptr, ptr %5, align 8, !tbaa !18
  %25 = load i64, ptr %6, align 8, !tbaa !6
  call void @dump_append_sizet(ptr noundef %24, i64 noundef %25)
  %26 = load ptr, ptr %3, align 8, !tbaa !111
  %27 = getelementptr inbounds nuw %struct.rb_shape, ptr %26, i32 0, i32 4
  %28 = load i8, ptr %27, align 8, !tbaa !113
  %29 = zext i8 %28 to i32
  %30 = icmp ne i32 %29, 0
  br i1 %30, label %31, label %38

31:                                               ; preds = %18
  %32 = load ptr, ptr %5, align 8, !tbaa !18
  call void @buffer_append(ptr noundef %32, ptr noundef @.str.108, i64 noundef 14)
  %33 = load ptr, ptr %5, align 8, !tbaa !18
  %34 = load ptr, ptr %3, align 8, !tbaa !111
  %35 = getelementptr inbounds nuw %struct.rb_shape, ptr %34, i32 0, i32 6
  %36 = load i32, ptr %35, align 4, !tbaa !114
  %37 = zext i32 %36 to i64
  call void @dump_append_lu(ptr noundef %33, i64 noundef %37)
  br label %38

38:                                               ; preds = %31, %18
  %39 = load ptr, ptr %5, align 8, !tbaa !18
  call void @buffer_append(ptr noundef %39, ptr noundef @.str.109, i64 noundef 10)
  %40 = load ptr, ptr %5, align 8, !tbaa !18
  %41 = load ptr, ptr %3, align 8, !tbaa !111
  %42 = call i64 @rb_shape_depth(ptr noundef %41)
  call void @dump_append_sizet(ptr noundef %40, i64 noundef %42)
  %43 = load ptr, ptr %5, align 8, !tbaa !18
  call void @buffer_append(ptr noundef %43, ptr noundef @.str.110, i64 noundef 15)
  %44 = load ptr, ptr %3, align 8, !tbaa !111
  %45 = getelementptr inbounds nuw %struct.rb_shape, ptr %44, i32 0, i32 4
  %46 = load i8, ptr %45, align 8, !tbaa !113
  %47 = zext i8 %46 to i32
  switch i32 %47, label %63 [
    i32 0, label %48
    i32 1, label %50
    i32 2, label %57
    i32 3, label %59
    i32 4, label %61
  ]

48:                                               ; preds = %38
  %49 = load ptr, ptr %5, align 8, !tbaa !18
  call void @buffer_append(ptr noundef %49, ptr noundef @.str.111, i64 noundef 6)
  br label %64

50:                                               ; preds = %38
  %51 = load ptr, ptr %5, align 8, !tbaa !18
  call void @buffer_append(ptr noundef %51, ptr noundef @.str.112, i64 noundef 6)
  %52 = load ptr, ptr %5, align 8, !tbaa !18
  call void @buffer_append(ptr noundef %52, ptr noundef @.str.113, i64 noundef 13)
  %53 = load ptr, ptr %5, align 8, !tbaa !18
  %54 = load ptr, ptr %3, align 8, !tbaa !111
  %55 = getelementptr inbounds nuw %struct.rb_shape, ptr %54, i32 0, i32 1
  %56 = load i64, ptr %55, align 8, !tbaa !115
  call void @dump_append_id(ptr noundef %53, i64 noundef %56)
  br label %64

57:                                               ; preds = %38
  %58 = load ptr, ptr %5, align 8, !tbaa !18
  call void @buffer_append(ptr noundef %58, ptr noundef @.str.114, i64 noundef 8)
  br label %64

59:                                               ; preds = %38
  %60 = load ptr, ptr %5, align 8, !tbaa !18
  call void @buffer_append(ptr noundef %60, ptr noundef @.str.115, i64 noundef 10)
  br label %64

61:                                               ; preds = %38
  %62 = load ptr, ptr %5, align 8, !tbaa !18
  call void @buffer_append(ptr noundef %62, ptr noundef @.str.116, i64 noundef 17)
  br label %64

63:                                               ; preds = %38
  call void (ptr, ...) @rb_bug(ptr noundef @.str.117) #27
  unreachable

64:                                               ; preds = %61, %59, %57, %50, %48
  %65 = load ptr, ptr %5, align 8, !tbaa !18
  call void @buffer_append(ptr noundef %65, ptr noundef @.str.118, i64 noundef 10)
  %66 = load ptr, ptr %5, align 8, !tbaa !18
  %67 = load ptr, ptr %3, align 8, !tbaa !111
  %68 = call i64 @rb_shape_edges_count(ptr noundef %67)
  call void @dump_append_sizet(ptr noundef %66, i64 noundef %68)
  %69 = load ptr, ptr %5, align 8, !tbaa !18
  call void @buffer_append(ptr noundef %69, ptr noundef @.str.44, i64 noundef 12)
  %70 = load ptr, ptr %5, align 8, !tbaa !18
  %71 = load ptr, ptr %3, align 8, !tbaa !111
  %72 = call i64 @rb_shape_memsize(ptr noundef %71)
  call void @dump_append_sizet(ptr noundef %70, i64 noundef %72)
  %73 = load ptr, ptr %5, align 8, !tbaa !18
  call void @buffer_append(ptr noundef %73, ptr noundef @.str.10, i64 noundef 2)
  store i32 0, ptr %7, align 4
  br label %74

74:                                               ; preds = %64, %17
  call void @llvm.lifetime.end.p0(i64 8, ptr %6) #21
  call void @llvm.lifetime.end.p0(i64 8, ptr %5) #21
  %75 = load i32, ptr %7, align 4
  switch i32 %75, label %77 [
    i32 0, label %76
    i32 1, label %76
  ]

76:                                               ; preds = %74, %74
  ret void

77:                                               ; preds = %74
  unreachable
}