; Function Attrs: nounwind sspstrong uwtable
define internal void @shape_i(ptr noundef %0, ptr noundef %1) #0 {
  %3 = alloca [20 x i8], align 16
  %4 = tail call i32 @rb_shape_id(ptr noundef %0) #12
  %5 = zext i32 %4 to i64
  %6 = getelementptr inbounds nuw i8, ptr %1, i64 88
  %7 = load i64, ptr %6, align 8, !tbaa !26
  %8 = icmp ugt i64 %7, %5
  br i1 %8, label %51, label %9

9:                                                ; preds = %2
  tail call fastcc void @buffer_append(ptr noundef nonnull %1, ptr noundef nonnull @.str.3, i64 noundef 11)
  call void @llvm.lifetime.start.p0(i64 20, ptr nonnull %3) #12
  %10 = getelementptr inbounds nuw i8, ptr %3, i64 19
  store i8 34, ptr %10, align 1, !tbaa !34
  %.not12.i.i = icmp eq ptr %0, null
  br i1 %.not12.i.i, label %dump_append_ref.exit, label %.lr.ph.i.i.preheader

.lr.ph.i.i.preheader:                             ; preds = %9
  %11 = ptrtoint ptr %0 to i64
  br label %.lr.ph.i.i

.lr.ph.i.i:                                       ; preds = %.lr.ph.i.i.preheader, %.lr.ph.i.i
  %.014.i.i = phi i64 [ %16, %.lr.ph.i.i ], [ %11, %.lr.ph.i.i.preheader ]
  %.01113.i.i = phi ptr [ %15, %.lr.ph.i.i ], [ %10, %.lr.ph.i.i.preheader ]
  %12 = and i64 %.014.i.i, 15
  %13 = getelementptr inbounds nuw [0 x i8], ptr @ruby_hexdigits, i64 0, i64 %12
  %14 = load i8, ptr %13, align 1, !tbaa !34
  %15 = getelementptr inbounds i8, ptr %.01113.i.i, i64 -1
  store i8 %14, ptr %15, align 1, !tbaa !34
  %16 = lshr i64 %.014.i.i, 4
  %.not.i.i = icmp ult i64 %.014.i.i, 16
  br i1 %.not.i.i, label %dump_append_ref.exit, label %.lr.ph.i.i, !llvm.loop !35

dump_append_ref.exit:                             ; preds = %.lr.ph.i.i, %9
  %.011.lcssa.i.i = phi ptr [ %10, %9 ], [ %15, %.lr.ph.i.i ]
  %17 = getelementptr inbounds nuw i8, ptr %3, i64 20
  %18 = getelementptr inbounds i8, ptr %.011.lcssa.i.i, i64 -1
  store i8 120, ptr %18, align 1, !tbaa !34
  %19 = getelementptr inbounds i8, ptr %.011.lcssa.i.i, i64 -2
  store i8 48, ptr %19, align 1, !tbaa !34
  %20 = getelementptr inbounds i8, ptr %.011.lcssa.i.i, i64 -3
  store i8 34, ptr %20, align 1, !tbaa !34
  %21 = ptrtoint ptr %17 to i64
  %22 = ptrtoint ptr %20 to i64
  %23 = sub i64 %21, %22
  call fastcc void @buffer_append(ptr noundef nonnull %1, ptr noundef nonnull %20, i64 noundef %23)
  call void @llvm.lifetime.end.p0(i64 20, ptr nonnull %3) #12
  call fastcc void @buffer_append(ptr noundef nonnull %1, ptr noundef nonnull @.str.107, i64 noundef 23)
  call fastcc void @dump_append_sizet(ptr noundef nonnull %1, i64 noundef %5)
  %24 = getelementptr inbounds nuw i8, ptr %0, i64 24
  %25 = load i8, ptr %24, align 8, !tbaa !97
  %.not = icmp eq i8 %25, 0
  br i1 %.not, label %30, label %26

26:                                               ; preds = %dump_append_ref.exit
  call fastcc void @buffer_append(ptr noundef nonnull %1, ptr noundef nonnull @.str.108, i64 noundef 14)
  %27 = getelementptr inbounds nuw i8, ptr %0, i64 28
  %28 = load i32, ptr %27, align 4, !tbaa !98
  %29 = zext i32 %28 to i64
  call fastcc void @dump_append_lu(ptr noundef nonnull %1, i64 noundef %29)
  br label %30

30:                                               ; preds = %26, %dump_append_ref.exit
  call fastcc void @buffer_append(ptr noundef nonnull %1, ptr noundef nonnull @.str.109, i64 noundef 10)
  %31 = call i64 @rb_shape_depth(ptr noundef nonnull %0) #12
  call fastcc void @dump_append_sizet(ptr noundef nonnull %1, i64 noundef %31)
  call fastcc void @buffer_append(ptr noundef nonnull %1, ptr noundef nonnull @.str.110, i64 noundef 15)
  %32 = load i8, ptr %24, align 8, !tbaa !97
  switch i8 %32, label %48 [
    i8 0, label %33
    i8 1, label %34
    i8 2, label %45
    i8 3, label %46
    i8 4, label %47
  ]

33:                                               ; preds = %30
  call fastcc void @buffer_append(ptr noundef nonnull %1, ptr noundef nonnull @.str.111, i64 noundef 6)
  br label %dump_append_id.exit

34:                                               ; preds = %30
  call fastcc void @buffer_append(ptr noundef nonnull %1, ptr noundef nonnull @.str.112, i64 noundef 6)
  call fastcc void @buffer_append(ptr noundef nonnull %1, ptr noundef nonnull @.str.113, i64 noundef 13)
  %35 = getelementptr inbounds nuw i8, ptr %0, i64 8
  %36 = load i64, ptr %35, align 8, !tbaa !99
  %37 = call i64 @rb_id2sym(i64 noundef %36) #12
  %38 = call i64 @rb_sym2str(i64 noundef %37) #12
  %39 = and i64 %38, -5
  %.not.i = icmp eq i64 %39, 0
  br i1 %.not.i, label %41, label %40

40:                                               ; preds = %34
  call fastcc void @dump_append_string_value(ptr noundef nonnull %1, i64 noundef %38)
  br label %dump_append_id.exit

41:                                               ; preds = %34
  call fastcc void @buffer_append(ptr noundef nonnull %1, ptr noundef nonnull @.str.84, i64 noundef 13)
  %42 = icmp ugt i64 %36, 170
  %43 = lshr i64 %36, 4
  %.0.in.i.i = select i1 %42, i64 %43, i64 %36
  %44 = and i64 %.0.in.i.i, 4294967295
  call fastcc void @dump_append_sizet(ptr noundef nonnull %1, i64 noundef %44)
  call fastcc void @buffer_append(ptr noundef nonnull %1, ptr noundef nonnull @.str.85, i64 noundef 2)
  br label %dump_append_id.exit

45:                                               ; preds = %30
  call fastcc void @buffer_append(ptr noundef nonnull %1, ptr noundef nonnull @.str.114, i64 noundef 8)
  br label %dump_append_id.exit

46:                                               ; preds = %30
  call fastcc void @buffer_append(ptr noundef nonnull %1, ptr noundef nonnull @.str.115, i64 noundef 10)
  br label %dump_append_id.exit

47:                                               ; preds = %30
  call fastcc void @buffer_append(ptr noundef nonnull %1, ptr noundef nonnull @.str.116, i64 noundef 17)
  br label %dump_append_id.exit

48:                                               ; preds = %30
  call void (ptr, ...) @rb_bug(ptr noundef nonnull @.str.117) #16
  unreachable

dump_append_id.exit:                              ; preds = %41, %40, %47, %46, %45, %33
  call fastcc void @buffer_append(ptr noundef nonnull %1, ptr noundef nonnull @.str.118, i64 noundef 10)
  %49 = call i64 @rb_shape_edges_count(ptr noundef nonnull %0) #12
  call fastcc void @dump_append_sizet(ptr noundef nonnull %1, i64 noundef %49)
  call fastcc void @buffer_append(ptr noundef nonnull %1, ptr noundef nonnull @.str.44, i64 noundef 12)
  %50 = call i64 @rb_shape_memsize(ptr noundef nonnull %0) #12
  call fastcc void @dump_append_sizet(ptr noundef nonnull %1, i64 noundef %50)
  call fastcc void @buffer_append(ptr noundef nonnull %1, ptr noundef nonnull @.str.10, i64 noundef 2)
  br label %51

51:                                               ; preds = %2, %dump_append_id.exit
  ret void
}